target datalayout = "e-m:e-p270:32:32-p271:32:32-p272:64:64-i64:64-i128:128-f80:128-n8:16:32:64-S128"
target triple = "x86_64-pc-linux-gnu"

%struct._zend_array = type { %struct._zend_refcounted_h, %union.anon.0, i32, %union.anon.1, i32, i32, i32, i32, i64, ptr }
%struct._zend_refcounted_h = type { i32, %union.anon }
%union.anon = type { i32 }
%union.anon.0 = type { i32 }
%union.anon.1 = type { ptr }
%struct._zval_struct = type { %union._zend_value, %union.anon.3, %union.anon.6 }
%union._zend_value = type { i64 }
%union.anon.3 = type { i32 }
%union.anon.6 = type { i32 }
%struct._php_basic_globals = type { ptr, %struct._zend_array, ptr, ptr, i8, ptr, [256 x i8], i64, %struct._zend_fcall_info, %struct._zend_fcall_info_cache, ptr, %struct._zval_struct, %struct._zval_struct, i64, i64, i64, i64, ptr, ptr, %struct._php_stream_statbuf, %struct._php_stream_statbuf, ptr, i32, %struct.anon.7, %struct.anon.8, %struct.url_adapt_state_ex_t, %struct._zend_array, %struct.url_adapt_state_ex_t, %struct._zend_array, ptr, i32, i64 }
%struct._zend_fcall_info = type { i64, %struct._zval_struct, ptr, ptr, ptr, i32, ptr }
%struct._zend_fcall_info_cache = type { ptr, ptr, ptr, ptr, ptr }
%struct._php_stream_statbuf = type { %struct.stat }
%struct.stat = type { i64, i64, i64, i32, i32, i32, i32, i64, i64, i64, i64, %struct.timespec, %struct.timespec, %struct.timespec, [3 x i64] }
%struct.timespec = type { i64, i64 }
%struct.anon.7 = type { ptr, i32 }
%struct.anon.8 = type { ptr, i32 }
%struct.url_adapt_state_ex_t = type { %struct.smart_str, %struct.smart_str, %struct.smart_str, %struct.smart_str, %struct.smart_str, %struct.smart_str, %struct.smart_str, i32, ptr, i32, i32, %struct.smart_str, i32, i32, ptr }
%struct.smart_str = type { ptr, i64 }

@basic_globals = external global %struct._php_basic_globals, align 8

; Function Attrs: nounwind uwtable
define hidden i32 @zm_deactivate_url_scanner_ex(i32 noundef %0, i32 noundef %1) #0 {
  %3 = alloca ptr, align 8
  %4 = alloca i32, align 4
  %5 = alloca ptr, align 8
  %6 = alloca i8, align 1
  %7 = alloca ptr, align 8
  %8 = alloca i8, align 1
  %9 = alloca ptr, align 8
  %10 = alloca i32, align 4
  %11 = alloca ptr, align 8
  %12 = alloca i8, align 1
  %13 = alloca ptr, align 8
  %14 = alloca i8, align 1
  %15 = alloca ptr, align 8
  %16 = alloca i32, align 4
  %17 = alloca ptr, align 8
  %18 = alloca i8, align 1
  %19 = alloca ptr, align 8
  %20 = alloca i8, align 1
  %21 = alloca ptr, align 8
  %22 = alloca i32, align 4
  %23 = alloca ptr, align 8
  %24 = alloca i8, align 1
  %25 = alloca ptr, align 8
  %26 = alloca i8, align 1
  %27 = alloca ptr, align 8
  %28 = alloca ptr, align 8
  %29 = alloca ptr, align 8
  %30 = alloca ptr, align 8
  %31 = alloca i32, align 4
  %32 = alloca i32, align 4
  store i32 %0, ptr %31, align 4
  store i32 %1, ptr %32, align 4
  %33 = load i32, ptr getelementptr inbounds (%struct._php_basic_globals, ptr @basic_globals, i32 0, i32 25, i32 7), align 8
  %34 = icmp ne i32 %33, 0
  br i1 %34, label %35, label %37

35:                                               ; preds = %2
  %36 = call i32 @php_url_scanner_ex_deactivate(i32 noundef 1)
  store i32 0, ptr getelementptr inbounds (%struct._php_basic_globals, ptr @basic_globals, i32 0, i32 25, i32 7), align 8
  store i32 0, ptr getelementptr inbounds (%struct._php_basic_globals, ptr @basic_globals, i32 0, i32 25, i32 12), align 8
  store i32 0, ptr getelementptr inbounds (%struct._php_basic_globals, ptr @basic_globals, i32 0, i32 25, i32 13), align 4
  br label %37

37:                                               ; preds = %35, %2
  store ptr getelementptr inbounds (%struct._php_basic_globals, ptr @basic_globals, i32 0, i32 25, i32 5), ptr %27, align 8
  %38 = load ptr, ptr %27, align 8
  store ptr %38, ptr %25, align 8
  store i8 0, ptr %26, align 1
  %39 = load ptr, ptr %25, align 8
  %40 = load ptr, ptr %39, align 8
  %41 = icmp ne ptr %40, null
  br i1 %41, label %42, label %75

42:                                               ; preds = %37
  %43 = load ptr, ptr %25, align 8
  %44 = load ptr, ptr %43, align 8
  %45 = load i8, ptr %26, align 1
  %46 = trunc i8 %45 to i1
  store ptr %44, ptr %23, align 8
  %47 = zext i1 %46 to i8
  store i8 %47, ptr %24, align 1
  %48 = load ptr, ptr %23, align 8
  %49 = getelementptr inbounds %struct._zend_refcounted_h, ptr %48, i32 0, i32 1
  %50 = load i32, ptr %49, align 4
  store i32 %50, ptr %22, align 4
  %51 = load i32, ptr %22, align 4
  %52 = and i32 %51, 1008
  %53 = and i32 %52, 64
  %54 = icmp ne i32 %53, 0
  br i1 %54, label %73, label %55

55:                                               ; preds = %42
  %56 = load ptr, ptr %23, align 8
  store ptr %56, ptr %21, align 8
  %57 = load ptr, ptr %21, align 8
  %58 = load i32, ptr %57, align 4
  %59 = icmp ugt i32 %58, 0
  call void @llvm.assume(i1 %59)
  %60 = load ptr, ptr %21, align 8
  %61 = load i32, ptr %60, align 4
  %62 = add i32 %61, -1
  store i32 %62, ptr %60, align 4
  %63 = icmp eq i32 %62, 0
  br i1 %63, label %64, label %72

64:                                               ; preds = %55
  %65 = load i8, ptr %24, align 1
  %66 = trunc i8 %65 to i1
  br i1 %66, label %67, label %69

67:                                               ; preds = %64
  %68 = load ptr, ptr %23, align 8
  call void @free(ptr noundef %68) #10
  br label %71

69:                                               ; preds = %64
  %70 = load ptr, ptr %23, align 8
  call void @_efree(ptr noundef %70) #10
  br label %71

71:                                               ; preds = %69, %67
  br label %72

72:                                               ; preds = %71, %55
  br label %73

73:                                               ; preds = %72, %42
  %74 = load ptr, ptr %25, align 8
  store ptr null, ptr %74, align 8
  br label %75

75:                                               ; preds = %73, %37
  %76 = load ptr, ptr %25, align 8
  %77 = getelementptr inbounds %struct.smart_str, ptr %76, i32 0, i32 1
  store i64 0, ptr %77, align 8
  store ptr getelementptr inbounds (%struct._php_basic_globals, ptr @basic_globals, i32 0, i32 25, i32 6), ptr %28, align 8
  %78 = load ptr, ptr %28, align 8
  store ptr %78, ptr %19, align 8
  store i8 0, ptr %20, align 1
  %79 = load ptr, ptr %19, align 8
  %80 = load ptr, ptr %79, align 8
  %81 = icmp ne ptr %80, null
  br i1 %81, label %82, label %115

82:                                               ; preds = %75
  %83 = load ptr, ptr %19, align 8
  %84 = load ptr, ptr %83, align 8
  %85 = load i8, ptr %20, align 1
  %86 = trunc i8 %85 to i1
  store ptr %84, ptr %17, align 8
  %87 = zext i1 %86 to i8
  store i8 %87, ptr %18, align 1
  %88 = load ptr, ptr %17, align 8
  %89 = getelementptr inbounds %struct._zend_refcounted_h, ptr %88, i32 0, i32 1
  %90 = load i32, ptr %89, align 4
  store i32 %90, ptr %16, align 4
  %91 = load i32, ptr %16, align 4
  %92 = and i32 %91, 1008
  %93 = and i32 %92, 64
  %94 = icmp ne i32 %93, 0
  br i1 %94, label %113, label %95

95:                                               ; preds = %82
  %96 = load ptr, ptr %17, align 8
  store ptr %96, ptr %15, align 8
  %97 = load ptr, ptr %15, align 8
  %98 = load i32, ptr %97, align 4
  %99 = icmp ugt i32 %98, 0
  call void @llvm.assume(i1 %99)
  %100 = load ptr, ptr %15, align 8
  %101 = load i32, ptr %100, align 4
  %102 = add i32 %101, -1
  store i32 %102, ptr %100, align 4
  %103 = icmp eq i32 %102, 0
  br i1 %103, label %104, label %112

104:                                              ; preds = %95
  %105 = load i8, ptr %18, align 1
  %106 = trunc i8 %105 to i1
  br i1 %106, label %107, label %109

107:                                              ; preds = %104
  %108 = load ptr, ptr %17, align 8
  call void @free(ptr noundef %108) #10
  br label %111

109:                                              ; preds = %104
  %110 = load ptr, ptr %17, align 8
  call void @_efree(ptr noundef %110) #10
  br label %111

111:                                              ; preds = %109, %107
  br label %112

112:                                              ; preds = %111, %95
  br label %113

113:                                              ; preds = %112, %82
  %114 = load ptr, ptr %19, align 8
  store ptr null, ptr %114, align 8
  br label %115

115:                                              ; preds = %113, %75
  %116 = load ptr, ptr %19, align 8
  %117 = getelementptr inbounds %struct.smart_str, ptr %116, i32 0, i32 1
  store i64 0, ptr %117, align 8
  %118 = load i32, ptr getelementptr inbounds (%struct._php_basic_globals, ptr @basic_globals, i32 0, i32 27, i32 7), align 8
  %119 = icmp ne i32 %118, 0
  br i1 %119, label %120, label %122

120:                                              ; preds = %115
  %121 = call i32 @php_url_scanner_ex_deactivate(i32 noundef 0)
  store i32 0, ptr getelementptr inbounds (%struct._php_basic_globals, ptr @basic_globals, i32 0, i32 27, i32 7), align 8
  store i32 0, ptr getelementptr inbounds (%struct._php_basic_globals, ptr @basic_globals, i32 0, i32 27, i32 12), align 8
  store i32 0, ptr getelementptr inbounds (%struct._php_basic_globals, ptr @basic_globals, i32 0, i32 27, i32 13), align 4
  br label %122

122:                                              ; preds = %120, %115
  store ptr getelementptr inbounds (%struct._php_basic_globals, ptr @basic_globals, i32 0, i32 27, i32 5), ptr %29, align 8
  %123 = load ptr, ptr %29, align 8
  store ptr %123, ptr %13, align 8
  store i8 0, ptr %14, align 1
  %124 = load ptr, ptr %13, align 8
  %125 = load ptr, ptr %124, align 8
  %126 = icmp ne ptr %125, null
  br i1 %126, label %127, label %160

127:                                              ; preds = %122
  %128 = load ptr, ptr %13, align 8
  %129 = load ptr, ptr %128, align 8
  %130 = load i8, ptr %14, align 1
  %131 = trunc i8 %130 to i1
  store ptr %129, ptr %11, align 8
  %132 = zext i1 %131 to i8
  store i8 %132, ptr %12, align 1
  %133 = load ptr, ptr %11, align 8
  %134 = getelementptr inbounds %struct._zend_refcounted_h, ptr %133, i32 0, i32 1
  %135 = load i32, ptr %134, align 4
  store i32 %135, ptr %10, align 4
  %136 = load i32, ptr %10, align 4
  %137 = and i32 %136, 1008
  %138 = and i32 %137, 64
  %139 = icmp ne i32 %138, 0
  br i1 %139, label %158, label %140

140:                                              ; preds = %127
  %141 = load ptr, ptr %11, align 8
  store ptr %141, ptr %9, align 8
  %142 = load ptr, ptr %9, align 8
  %143 = load i32, ptr %142, align 4
  %144 = icmp ugt i32 %143, 0
  call void @llvm.assume(i1 %144)
  %145 = load ptr, ptr %9, align 8
  %146 = load i32, ptr %145, align 4
  %147 = add i32 %146, -1
  store i32 %147, ptr %145, align 4
  %148 = icmp eq i32 %147, 0
  br i1 %148, label %149, label %157

149:                                              ; preds = %140
  %150 = load i8, ptr %12, align 1
  %151 = trunc i8 %150 to i1
  br i1 %151, label %152, label %154

152:                                              ; preds = %149
  %153 = load ptr, ptr %11, align 8
  call void @free(ptr noundef %153) #10
  br label %156

154:                                              ; preds = %149
  %155 = load ptr, ptr %11, align 8
  call void @_efree(ptr noundef %155) #10
  br label %156

156:                                              ; preds = %154, %152
  br label %157

157:                                              ; preds = %156, %140
  br label %158

158:                                              ; preds = %157, %127
  %159 = load ptr, ptr %13, align 8
  store ptr null, ptr %159, align 8
  br label %160

160:                                              ; preds = %158, %122
  %161 = load ptr, ptr %13, align 8
  %162 = getelementptr inbounds %struct.smart_str, ptr %161, i32 0, i32 1
  store i64 0, ptr %162, align 8
  store ptr getelementptr inbounds (%struct._php_basic_globals, ptr @basic_globals, i32 0, i32 27, i32 6), ptr %30, align 8
  %163 = load ptr, ptr %30, align 8
  store ptr %163, ptr %7, align 8
  store i8 0, ptr %8, align 1
  %164 = load ptr, ptr %7, align 8
  %165 = load ptr, ptr %164, align 8
  %166 = icmp ne ptr %165, null
  br i1 %166, label %167, label %200

167:                                              ; preds = %160
  %168 = load ptr, ptr %7, align 8
  %169 = load ptr, ptr %168, align 8
  %170 = load i8, ptr %8, align 1
  %171 = trunc i8 %170 to i1
  store ptr %169, ptr %5, align 8
  %172 = zext i1 %171 to i8
  store i8 %172, ptr %6, align 1
  %173 = load ptr, ptr %5, align 8
  %174 = getelementptr inbounds %struct._zend_refcounted_h, ptr %173, i32 0, i32 1
  %175 = load i32, ptr %174, align 4
  store i32 %175, ptr %4, align 4
  %176 = load i32, ptr %4, align 4
  %177 = and i32 %176, 1008
  %178 = and i32 %177, 64
  %179 = icmp ne i32 %178, 0
  br i1 %179, label %198, label %180

180:                                              ; preds = %167
  %181 = load ptr, ptr %5, align 8
  store ptr %181, ptr %3, align 8
  %182 = load ptr, ptr %3, align 8
  %183 = load i32, ptr %182, align 4
  %184 = icmp ugt i32 %183, 0
  call void @llvm.assume(i1 %184)
  %185 = load ptr, ptr %3, align 8
  %186 = load i32, ptr %185, align 4
  %187 = add i32 %186, -1
  store i32 %187, ptr %185, align 4
  %188 = icmp eq i32 %187, 0
  br i1 %188, label %189, label %197

189:                                              ; preds = %180
  %190 = load i8, ptr %6, align 1
  %191 = trunc i8 %190 to i1
  br i1 %191, label %192, label %194

192:                                              ; preds = %189
  %193 = load ptr, ptr %5, align 8
  call void @free(ptr noundef %193) #10
  br label %196

194:                                              ; preds = %189
  %195 = load ptr, ptr %5, align 8
  call void @_efree(ptr noundef %195) #10
  br label %196

196:                                              ; preds = %194, %192
  br label %197

197:                                              ; preds = %196, %180
  br label %198

198:                                              ; preds = %197, %167
  %199 = load ptr, ptr %7, align 8
  store ptr null, ptr %199, align 8
  br label %200

200:                                              ; preds = %198, %160
  %201 = load ptr, ptr %7, align 8
  %202 = getelementptr inbounds %struct.smart_str, ptr %201, i32 0, i32 1
  store i64 0, ptr %202, align 8
  ret i32 0
}