; Function Attrs: nounwind uwtable
define hidden noundef i32 @zm_deactivate_url_scanner_ex(i32 noundef %0, i32 noundef %1) local_unnamed_addr #0 {
  %3 = load i32, ptr getelementptr inbounds (%struct._php_basic_globals, ptr @basic_globals, i64 0, i32 25, i32 7), align 8
  %.not = icmp eq i32 %3, 0
  br i1 %.not, label %5, label %4

4:                                                ; preds = %2
  tail call fastcc void @php_url_scanner_ex_deactivate(i32 noundef 1)
  store i32 0, ptr getelementptr inbounds (%struct._php_basic_globals, ptr @basic_globals, i64 0, i32 25, i32 7), align 8
  store i32 0, ptr getelementptr inbounds (%struct._php_basic_globals, ptr @basic_globals, i64 0, i32 25, i32 12), align 8
  store i32 0, ptr getelementptr inbounds (%struct._php_basic_globals, ptr @basic_globals, i64 0, i32 25, i32 13), align 4
  br label %5

5:                                                ; preds = %4, %2
  %6 = load ptr, ptr getelementptr inbounds (%struct._php_basic_globals, ptr @basic_globals, i64 0, i32 25, i32 5), align 8
  %.not58 = icmp eq ptr %6, null
  br i1 %.not58, label %18, label %7

7:                                                ; preds = %5
  %8 = getelementptr inbounds i8, ptr %6, i64 4
  %9 = load i32, ptr %8, align 4
  %10 = and i32 %9, 64
  %.not59 = icmp eq i32 %10, 0
  br i1 %.not59, label %11, label %17

11:                                               ; preds = %7
  %12 = load i32, ptr %6, align 4
  %13 = icmp ne i32 %12, 0
  tail call void @llvm.assume(i1 %13)
  %14 = add i32 %12, -1
  store i32 %14, ptr %6, align 4
  %15 = icmp eq i32 %14, 0
  br i1 %15, label %16, label %17

16:                                               ; preds = %11
  tail call void @_efree(ptr noundef nonnull %6) #16
  br label %17

17:                                               ; preds = %11, %16, %7
  store ptr null, ptr getelementptr inbounds (%struct._php_basic_globals, ptr @basic_globals, i64 0, i32 25, i32 5), align 8
  br label %18

18:                                               ; preds = %17, %5
  store i64 0, ptr getelementptr inbounds (%struct._php_basic_globals, ptr @basic_globals, i64 0, i32 25, i32 5, i32 1), align 8
  %19 = load ptr, ptr getelementptr inbounds (%struct._php_basic_globals, ptr @basic_globals, i64 0, i32 25, i32 6), align 8
  %.not60 = icmp eq ptr %19, null
  br i1 %.not60, label %31, label %20

20:                                               ; preds = %18
  %21 = getelementptr inbounds i8, ptr %19, i64 4
  %22 = load i32, ptr %21, align 4
  %23 = and i32 %22, 64
  %.not61 = icmp eq i32 %23, 0
  br i1 %.not61, label %24, label %30

24:                                               ; preds = %20
  %25 = load i32, ptr %19, align 4
  %26 = icmp ne i32 %25, 0
  tail call void @llvm.assume(i1 %26)
  %27 = add i32 %25, -1
  store i32 %27, ptr %19, align 4
  %28 = icmp eq i32 %27, 0
  br i1 %28, label %29, label %30

29:                                               ; preds = %24
  tail call void @_efree(ptr noundef nonnull %19) #16
  br label %30

30:                                               ; preds = %24, %29, %20
  store ptr null, ptr getelementptr inbounds (%struct._php_basic_globals, ptr @basic_globals, i64 0, i32 25, i32 6), align 8
  br label %31

31:                                               ; preds = %30, %18
  store i64 0, ptr getelementptr inbounds (%struct._php_basic_globals, ptr @basic_globals, i64 0, i32 25, i32 6, i32 1), align 8
  %32 = load i32, ptr getelementptr inbounds (%struct._php_basic_globals, ptr @basic_globals, i64 0, i32 27, i32 7), align 8
  %.not62 = icmp eq i32 %32, 0
  br i1 %.not62, label %34, label %33

33:                                               ; preds = %31
  tail call fastcc void @php_url_scanner_ex_deactivate(i32 noundef 0)
  store i32 0, ptr getelementptr inbounds (%struct._php_basic_globals, ptr @basic_globals, i64 0, i32 27, i32 7), align 8
  store i32 0, ptr getelementptr inbounds (%struct._php_basic_globals, ptr @basic_globals, i64 0, i32 27, i32 12), align 8
  store i32 0, ptr getelementptr inbounds (%struct._php_basic_globals, ptr @basic_globals, i64 0, i32 27, i32 13), align 4
  br label %34

34:                                               ; preds = %33, %31
  %35 = load ptr, ptr getelementptr inbounds (%struct._php_basic_globals, ptr @basic_globals, i64 0, i32 27, i32 5), align 8
  %.not63 = icmp eq ptr %35, null
  br i1 %.not63, label %47, label %36

36:                                               ; preds = %34
  %37 = getelementptr inbounds i8, ptr %35, i64 4
  %38 = load i32, ptr %37, align 4
  %39 = and i32 %38, 64
  %.not64 = icmp eq i32 %39, 0
  br i1 %.not64, label %40, label %46

40:                                               ; preds = %36
  %41 = load i32, ptr %35, align 4
  %42 = icmp ne i32 %41, 0
  tail call void @llvm.assume(i1 %42)
  %43 = add i32 %41, -1
  store i32 %43, ptr %35, align 4
  %44 = icmp eq i32 %43, 0
  br i1 %44, label %45, label %46

45:                                               ; preds = %40
  tail call void @_efree(ptr noundef nonnull %35) #16
  br label %46

46:                                               ; preds = %40, %45, %36
  store ptr null, ptr getelementptr inbounds (%struct._php_basic_globals, ptr @basic_globals, i64 0, i32 27, i32 5), align 8
  br label %47

47:                                               ; preds = %46, %34
  store i64 0, ptr getelementptr inbounds (%struct._php_basic_globals, ptr @basic_globals, i64 0, i32 27, i32 5, i32 1), align 8
  %48 = load ptr, ptr getelementptr inbounds (%struct._php_basic_globals, ptr @basic_globals, i64 0, i32 27, i32 6), align 8
  %.not65 = icmp eq ptr %48, null
  br i1 %.not65, label %60, label %49

49:                                               ; preds = %47
  %50 = getelementptr inbounds i8, ptr %48, i64 4
  %51 = load i32, ptr %50, align 4
  %52 = and i32 %51, 64
  %.not66 = icmp eq i32 %52, 0
  br i1 %.not66, label %53, label %59

53:                                               ; preds = %49
  %54 = load i32, ptr %48, align 4
  %55 = icmp ne i32 %54, 0
  tail call void @llvm.assume(i1 %55)
  %56 = add i32 %54, -1
  store i32 %56, ptr %48, align 4
  %57 = icmp eq i32 %56, 0
  br i1 %57, label %58, label %59

58:                                               ; preds = %53
  tail call void @_efree(ptr noundef nonnull %48) #16
  br label %59

59:                                               ; preds = %53, %58, %49
  store ptr null, ptr getelementptr inbounds (%struct._php_basic_globals, ptr @basic_globals, i64 0, i32 27, i32 6), align 8
  br label %60

60:                                               ; preds = %59, %47
  store i64 0, ptr getelementptr inbounds (%struct._php_basic_globals, ptr @basic_globals, i64 0, i32 27, i32 6, i32 1), align 8
  ret i32 0
}